; Function Attrs: mustprogress uwtable
define void @_ZN16PickPointsDialog16toggleSelectModeEb(ptr nocapture noundef nonnull align 8 dereferenceable(464) %0, i1 noundef zeroext %1) local_unnamed_addr #9 align 2 personality ptr @__gxx_personality_v0 {
  %3 = alloca %class.QCursor, align 8
  br i1 %1, label %4, label %11

4:                                                ; preds = %2
  call void @_ZN7QCursorC1EN2Qt11CursorShapeE(ptr noundef nonnull align 8 dereferenceable(8) %3, i32 noundef 13)
  invoke void @_ZN15QGuiApplication17setOverrideCursorERK7QCursor(ptr noundef nonnull align 8 dereferenceable(8) %3)
          to label %5 unwind label %9

5:                                                ; preds = %4
  call void @_ZN7QCursorD1Ev(ptr noundef nonnull align 8 dereferenceable(8) %3) #27
  %6 = getelementptr inbounds i8, ptr %0, i64 48
  store i32 2, ptr %6, align 8
  %7 = getelementptr inbounds i8, ptr %0, i64 112
  %8 = load ptr, ptr %7, align 8
  call void @_ZN15QAbstractButton10setCheckedEb(ptr noundef nonnull align 8 dereferenceable(48) %8, i1 noundef zeroext true)
  br label %11

9:                                                ; preds = %4
  %10 = landingpad { ptr, i32 }
          cleanup
  call void @_ZN7QCursorD1Ev(ptr noundef nonnull align 8 dereferenceable(8) %3) #27
  resume { ptr, i32 } %10

11:                                               ; preds = %5, %2
  ret void
}